; Function Attrs: mustprogress nofree norecurse nosync nounwind willreturn memory(read, inaccessiblemem: none) uwtable
define internal noundef i64 @_ZN7rocksdb12_GLOBAL__N_19VectorRep22ApproximateMemoryUsageEv(ptr nocapture noundef nonnull readonly align 8 dereferenceable(104) %this) unnamed_addr #10 align 2 {
entry:
  %bucket_ = getelementptr inbounds i8, ptr %this, i64 16
  %0 = load ptr, ptr %bucket_, align 8
  %_M_finish.i = getelementptr inbounds i8, ptr %0, i64 8
  %1 = load ptr, ptr %_M_finish.i, align 8
  %2 = load ptr, ptr %0, align 8
  %sub.ptr.lhs.cast.i = ptrtoint ptr %1 to i64
  %sub.ptr.rhs.cast.i = ptrtoint ptr %2 to i64
  %sub.ptr.sub.i = add i64 %sub.ptr.lhs.cast.i, 40
  %add = sub i64 %sub.ptr.sub.i, %sub.ptr.rhs.cast.i
  ret i64 %add
}